; Function Attrs: nounwind uwtable
define hidden ptr @_PyCompile_StaticAttributesAsTuple(ptr noundef readonly captures(none) %0) local_unnamed_addr #0 {
  %2 = getelementptr inbounds nuw i8, ptr %0, i64 64
  %3 = load ptr, ptr %2, align 8, !tbaa !42
  %4 = getelementptr inbounds nuw i8, ptr %3, i64 24
  %5 = load ptr, ptr %4, align 8, !tbaa !36
  %6 = tail call ptr @PySequence_List(ptr noundef %5) #11
  %7 = icmp eq ptr %6, null
  br i1 %7, label %Py_DECREF.exit10, label %8

8:                                                ; preds = %1
  %9 = tail call i32 @PyList_Sort(ptr noundef nonnull %6) #11
  %.not = icmp eq i32 %9, 0
  br i1 %.not, label %15, label %10

10:                                               ; preds = %8
  %11 = load i32, ptr %6, align 8, !tbaa !4
  %.not.i9 = icmp sgt i32 %11, -1
  br i1 %.not.i9, label %12, label %Py_DECREF.exit10

12:                                               ; preds = %10
  %13 = add nsw i32 %11, -1
  store i32 %13, ptr %6, align 8, !tbaa !4
  %14 = icmp eq i32 %13, 0
  br i1 %14, label %Py_DECREF.exit10.sink.split, label %Py_DECREF.exit10

15:                                               ; preds = %8
  %16 = tail call ptr @PySequence_Tuple(ptr noundef nonnull %6) #11
  %17 = load i32, ptr %6, align 8, !tbaa !4
  %.not.i = icmp sgt i32 %17, -1
  br i1 %.not.i, label %18, label %Py_DECREF.exit10

18:                                               ; preds = %15
  %19 = add nsw i32 %17, -1
  store i32 %19, ptr %6, align 8, !tbaa !4
  %20 = icmp eq i32 %19, 0
  br i1 %20, label %Py_DECREF.exit10.sink.split, label %Py_DECREF.exit10

Py_DECREF.exit10.sink.split:                      ; preds = %18, %12
  %.0.ph = phi ptr [ null, %12 ], [ %16, %18 ]
  tail call void @_Py_Dealloc(ptr noundef nonnull %6) #11
  br label %Py_DECREF.exit10

Py_DECREF.exit10:                                 ; preds = %Py_DECREF.exit10.sink.split, %18, %15, %12, %10, %1
  %.0 = phi ptr [ null, %1 ], [ null, %10 ], [ null, %12 ], [ %16, %15 ], [ %16, %18 ], [ %.0.ph, %Py_DECREF.exit10.sink.split ]
  ret ptr %.0
}